; Function Attrs: mustprogress uwtable
define hidden void @_Z12check_optargPKc(ptr noundef %0) local_unnamed_addr #2 {
  %2 = load ptr, ptr @optarg, align 8, !tbaa !69
  %.not = icmp eq ptr %2, null
  br i1 %.not, label %3, label %8

3:                                                ; preds = %1
  %4 = tail call noundef nonnull align 8 dereferenceable(8) ptr @_ZStlsISt11char_traitsIcEERSt13basic_ostreamIcT_ES5_PKc(ptr noundef nonnull align 8 dereferenceable(8) @_ZSt4cerr, ptr noundef nonnull @.str.7)
  %5 = tail call noundef nonnull align 8 dereferenceable(8) ptr @_ZStlsISt11char_traitsIcEERSt13basic_ostreamIcT_ES5_PKc(ptr noundef nonnull align 8 dereferenceable(8) %4, ptr noundef %0)
  %6 = tail call noundef nonnull align 8 dereferenceable(8) ptr @_ZStlsISt11char_traitsIcEERSt13basic_ostreamIcT_ES5_PKc(ptr noundef nonnull align 8 dereferenceable(8) %5, ptr noundef nonnull @.str.8)
  %7 = tail call noundef nonnull align 8 dereferenceable(8) ptr @_ZSt4endlIcSt11char_traitsIcEERSt13basic_ostreamIT_T0_ES6_(ptr noundef nonnull align 8 dereferenceable(8) %6)
  tail call void @exit(i32 noundef 1) #31
  unreachable

8:                                                ; preds = %1
  ret void
}